target datalayout = "e-m:e-p270:32:32-p271:32:32-p272:64:64-i64:64-i128:128-f80:128-n8:16:32:64-S128"
target triple = "x86_64-unknown-linux-gnu"

%struct.target_sigset_t = type { [1 x i64] }

@target_to_host_signal_table = internal global [65 x i8] zeroinitializer, align 16

; Function Attrs: nounwind sspstrong uwtable
define internal i32 @target_sigismember(ptr noundef %set, i32 noundef %signum) #0 {
entry:
  %set.addr = alloca ptr, align 8
  %signum.addr = alloca i32, align 4
  %mask = alloca i64, align 8
  store ptr %set, ptr %set.addr, align 8
  store i32 %signum, ptr %signum.addr, align 4
  %0 = load i32, ptr %signum.addr, align 4
  %dec = add i32 %0, -1
  store i32 %dec, ptr %signum.addr, align 4
  %1 = load i32, ptr %signum.addr, align 4
  %rem = srem i32 %1, 64
  %sh_prom = zext i32 %rem to i64
  %shl = shl i64 1, %sh_prom
  store i64 %shl, ptr %mask, align 8
  %2 = load ptr, ptr %set.addr, align 8
  %sig = getelementptr inbounds %struct.target_sigset_t, ptr %2, i32 0, i32 0
  %3 = load i32, ptr %signum.addr, align 4
  %div = sdiv i32 %3, 64
  %idxprom = sext i32 %div to i64
  %arrayidx = getelementptr [1 x i64], ptr %sig, i64 0, i64 %idxprom
  %4 = load i64, ptr %arrayidx, align 8
  %5 = load i64, ptr %mask, align 8
  %and = and i64 %4, %5
  %cmp = icmp ne i64 %and, 0
  %conv = zext i1 %cmp to i32
  ret i32 %conv
}

; Function Attrs: nounwind sspstrong uwtable
define dso_local i32 @target_to_host_signal(i32 noundef %sig) #0 {
entry:
  %retval = alloca i32, align 4
  %sig.addr = alloca i32, align 4
  store i32 %sig, ptr %sig.addr, align 4
  %0 = load i32, ptr %sig.addr, align 4
  %cmp = icmp slt i32 %0, 1
  br i1 %cmp, label %if.then, label %if.end

if.then:                                          ; preds = %entry
  %1 = load i32, ptr %sig.addr, align 4
  store i32 %1, ptr %retval, align 4
  br label %return

if.end:                                           ; preds = %entry
  %2 = load i32, ptr %sig.addr, align 4
  %cmp1 = icmp sgt i32 %2, 64
  br i1 %cmp1, label %if.then2, label %if.end3

if.then2:                                         ; preds = %if.end
  store i32 65, ptr %retval, align 4
  br label %return

if.end3:                                          ; preds = %if.end
  %3 = load i32, ptr %sig.addr, align 4
  %idxprom = sext i32 %3 to i64
  %arrayidx = getelementptr [65 x i8], ptr @target_to_host_signal_table, i64 0, i64 %idxprom
  %4 = load i8, ptr %arrayidx, align 1
  %conv = zext i8 %4 to i32
  store i32 %conv, ptr %retval, align 4
  br label %return

return:                                           ; preds = %if.end3, %if.then2, %if.then
  %5 = load i32, ptr %retval, align 4
  ret i32 %5
}

; Function Attrs: nounwind sspstrong uwtable
define internal i64 @tswap64(i64 noundef %s) #0 {
entry:
  %s.addr = alloca i64, align 8
  store i64 %s, ptr %s.addr, align 8
  %0 = load i64, ptr %s.addr, align 8
  ret i64 %0
}

; Function Attrs: nounwind sspstrong uwtable
define dso_local void @target_to_host_sigset_internal(ptr noundef %d, ptr noundef %s) #0 {
entry:
  %d.addr = alloca ptr, align 8
  %s.addr = alloca ptr, align 8
  %host_sig = alloca i32, align 4
  %target_sig = alloca i32, align 4
  store ptr %d, ptr %d.addr, align 8
  store ptr %s, ptr %s.addr, align 8
  %0 = load ptr, ptr %d.addr, align 8
  %call = call i32 @sigemptyset(ptr noundef %0) #9
  store i32 1, ptr %target_sig, align 4
  br label %for.cond

for.cond:                                         ; preds = %for.inc, %entry
  %1 = load i32, ptr %target_sig, align 4
  %cmp = icmp sle i32 %1, 64
  br i1 %cmp, label %for.body, label %for.end

for.body:                                         ; preds = %for.cond
  %2 = load i32, ptr %target_sig, align 4
  %call1 = call i32 @target_to_host_signal(i32 noundef %2)
  store i32 %call1, ptr %host_sig, align 4
  %3 = load i32, ptr %host_sig, align 4
  %cmp2 = icmp slt i32 %3, 1
  br i1 %cmp2, label %if.then, label %lor.lhs.false

lor.lhs.false:                                    ; preds = %for.body
  %4 = load i32, ptr %host_sig, align 4
  %cmp3 = icmp sge i32 %4, 65
  br i1 %cmp3, label %if.then, label %if.end

if.then:                                          ; preds = %lor.lhs.false, %for.body
  br label %for.inc

if.end:                                           ; preds = %lor.lhs.false
  %5 = load ptr, ptr %s.addr, align 8
  %6 = load i32, ptr %target_sig, align 4
  %call4 = call i32 @target_sigismember(ptr noundef %5, i32 noundef %6)
  %tobool = icmp ne i32 %call4, 0
  br i1 %tobool, label %if.then5, label %if.end7

if.then5:                                         ; preds = %if.end
  %7 = load ptr, ptr %d.addr, align 8
  %8 = load i32, ptr %host_sig, align 4
  %call6 = call i32 @sigaddset(ptr noundef %7, i32 noundef %8) #9
  br label %if.end7

if.end7:                                          ; preds = %if.then5, %if.end
  br label %for.inc

for.inc:                                          ; preds = %if.end7, %if.then
  %9 = load i32, ptr %target_sig, align 4
  %inc = add i32 %9, 1
  store i32 %inc, ptr %target_sig, align 4
  br label %for.cond, !llvm.loop !8

for.end:                                          ; preds = %for.cond
  ret void
}

; Function Attrs: nounwind sspstrong uwtable
define internal i64 @tswapal(i64 noundef %v) #0 {
entry:
  %v.addr = alloca i64, align 8
  store i64 %v, ptr %v.addr, align 8
  %0 = load i64, ptr %v.addr, align 8
  %call = call i64 @tswap64(i64 noundef %0)
  ret i64 %call
}

; Function Attrs: nounwind sspstrong uwtable
define dso_local void @target_to_host_sigset(ptr noundef %d, ptr noundef %s) #0 {
entry:
  %d.addr = alloca ptr, align 8
  %s.addr = alloca ptr, align 8
  %s1 = alloca %struct.target_sigset_t, align 8
  %i = alloca i32, align 4
  store ptr %d, ptr %d.addr, align 8
  store ptr %s, ptr %s.addr, align 8
  store i32 0, ptr %i, align 4
  br label %for.cond

for.cond:                                         ; preds = %for.inc, %entry
  %0 = load i32, ptr %i, align 4
  %cmp = icmp slt i32 %0, 1
  br i1 %cmp, label %for.body, label %for.end

for.body:                                         ; preds = %for.cond
  %1 = load ptr, ptr %s.addr, align 8
  %sig = getelementptr inbounds %struct.target_sigset_t, ptr %1, i32 0, i32 0
  %2 = load i32, ptr %i, align 4
  %idxprom = sext i32 %2 to i64
  %arrayidx = getelementptr [1 x i64], ptr %sig, i64 0, i64 %idxprom
  %3 = load i64, ptr %arrayidx, align 8
  %call = call i64 @tswapal(i64 noundef %3)
  %sig1 = getelementptr inbounds %struct.target_sigset_t, ptr %s1, i32 0, i32 0
  %4 = load i32, ptr %i, align 4
  %idxprom2 = sext i32 %4 to i64
  %arrayidx3 = getelementptr [1 x i64], ptr %sig1, i64 0, i64 %idxprom2
  store i64 %call, ptr %arrayidx3, align 8
  br label %for.inc

for.inc:                                          ; preds = %for.body
  %5 = load i32, ptr %i, align 4
  %inc = add i32 %5, 1
  store i32 %inc, ptr %i, align 4
  br label %for.cond, !llvm.loop !9

for.end:                                          ; preds = %for.cond
  %6 = load ptr, ptr %d.addr, align 8
  call void @target_to_host_sigset_internal(ptr noundef %6, ptr noundef %s1)
  ret void
}

; Function Attrs: nounwind sspstrong uwtable
define dso_local void @target_to_host_old_sigset(ptr noundef %sigset, ptr noundef %old_sigset) #0 {
entry:
  %sigset.addr = alloca ptr, align 8
  %old_sigset.addr = alloca ptr, align 8
  %d = alloca %struct.target_sigset_t, align 8
  %i = alloca i32, align 4
  store ptr %sigset, ptr %sigset.addr, align 8
  store ptr %old_sigset, ptr %old_sigset.addr, align 8
  %0 = load ptr, ptr %old_sigset.addr, align 8
  %1 = load i64, ptr %0, align 8
  %sig = getelementptr inbounds %struct.target_sigset_t, ptr %d, i32 0, i32 0
  %arrayidx = getelementptr [1 x i64], ptr %sig, i64 0, i64 0
  store i64 %1, ptr %arrayidx, align 8
  store i32 1, ptr %i, align 4
  br label %for.cond

for.cond:                                         ; preds = %for.inc, %entry
  %2 = load i32, ptr %i, align 4
  %cmp = icmp slt i32 %2, 1
  br i1 %cmp, label %for.body, label %for.end

for.body:                                         ; preds = %for.cond
  %sig1 = getelementptr inbounds %struct.target_sigset_t, ptr %d, i32 0, i32 0
  %3 = load i32, ptr %i, align 4
  %idxprom = sext i32 %3 to i64
  %arrayidx2 = getelementptr [1 x i64], ptr %sig1, i64 0, i64 %idxprom
  store i64 0, ptr %arrayidx2, align 8
  br label %for.inc

for.inc:                                          ; preds = %for.body
  %4 = load i32, ptr %i, align 4
  %inc = add i32 %4, 1
  store i32 %inc, ptr %i, align 4
  br label %for.cond, !llvm.loop !10

for.end:                                          ; preds = %for.cond
  %5 = load ptr, ptr %sigset.addr, align 8
  call void @target_to_host_sigset(ptr noundef %5, ptr noundef %d)
  ret void
}