; Function Attrs: nounwind sspstrong uwtable
define dso_local void @target_to_host_old_sigset(ptr noundef %sigset, ptr noundef readonly captures(none) %old_sigset) local_unnamed_addr #1 {
entry:
  %0 = load i64, ptr %old_sigset, align 8
  %call.i.i = tail call i32 @sigemptyset(ptr noundef %sigset) #16
  br label %target_to_host_signal.exit.i.i

target_to_host_signal.exit.i.i:                   ; preds = %for.inc.i.i, %entry
  %indvars.iv.i.i = phi i64 [ 1, %entry ], [ %indvars.iv.next.i.i, %for.inc.i.i ]
  %arrayidx.i.i.i = getelementptr [65 x i8], ptr @target_to_host_signal_table, i64 0, i64 %indvars.iv.i.i
  %1 = load i8, ptr %arrayidx.i.i.i, align 1
  %conv.i.i.i = zext i8 %1 to i32
  %2 = add nsw i32 %conv.i.i.i, -65
  %or.cond.i.i = icmp ult i32 %2, -64
  br i1 %or.cond.i.i, label %for.inc.i.i, label %if.end.i.i

if.end.i.i:                                       ; preds = %target_to_host_signal.exit.i.i
  %3 = add nsw i64 %indvars.iv.i.i, -1
  %4 = shl nuw i64 1, %3
  %5 = and i64 %4, %0
  %tobool.not.i.i = icmp eq i64 %5, 0
  br i1 %tobool.not.i.i, label %for.inc.i.i, label %if.then5.i.i

if.then5.i.i:                                     ; preds = %if.end.i.i
  %call6.i.i = tail call i32 @sigaddset(ptr noundef %sigset, i32 noundef %conv.i.i.i) #16
  br label %for.inc.i.i

for.inc.i.i:                                      ; preds = %if.then5.i.i, %if.end.i.i, %target_to_host_signal.exit.i.i
  %indvars.iv.next.i.i = add nuw nsw i64 %indvars.iv.i.i, 1
  %exitcond.not.i.i = icmp eq i64 %indvars.iv.next.i.i, 65
  br i1 %exitcond.not.i.i, label %target_to_host_sigset.exit, label %target_to_host_signal.exit.i.i, !llvm.loop !7

target_to_host_sigset.exit:                       ; preds = %for.inc.i.i
  ret void
}